; Function Attrs: mustprogress nofree norecurse nosync nounwind willreturn memory(read, inaccessiblemem: none) uwtable
define hidden noundef zeroext i1 @_ZNK2lp10int_solver9has_lowerEj(ptr noundef nonnull readonly align 8 captures(none) dereferenceable(32) %0, i32 noundef %1) local_unnamed_addr #9 align 2 {
_ZNK2lp10int_solver3imp9has_lowerEj.exit:
  %2 = getelementptr inbounds nuw i8, ptr %0, i64 16
  %3 = load ptr, ptr %2, align 8, !tbaa !40
  %4 = getelementptr inbounds nuw i8, ptr %3, i64 16
  %5 = load ptr, ptr %4, align 8, !tbaa !287
  %6 = getelementptr inbounds nuw i8, ptr %5, i64 88
  %7 = load ptr, ptr %6, align 8, !tbaa !283
  %8 = zext i32 %1 to i64
  %9 = getelementptr inbounds nuw i32, ptr %7, i64 %8
  %10 = load i32, ptr %9, align 4, !tbaa !284
  %11 = icmp ult i32 %10, 5
  %switch.cast = trunc i32 %10 to i5
  %switch.downshift = lshr i5 -6, %switch.cast
  %switch.masked = trunc i5 %switch.downshift to i1
  %.0.i = select i1 %11, i1 %switch.masked, i1 false
  ret i1 %.0.i
}